GAS LISTING /tmp/ccEGDR1z.s 			page 1


   1               		.file	"tlc.c"
   2               	__SREG__ = 0x3f
   3               	__SP_H__ = 0x3e
   4               	__SP_L__ = 0x3d
   5               	__tmp_reg__ = 0
   6               	__zero_reg__ = 1
   7               		.global __do_copy_data
   8               		.global __do_clear_bss
   9               		.stabs	"/home/j/projects/acris/avr/huecycle/",100,0,2,.Ltext0
  10               		.stabs	"tlc.c",100,0,2,.Ltext0
  11               		.text
  12               	.Ltext0:
  13               		.stabs	"gcc2_compiled.",60,0,0,0
  14               		.stabs	"int:t(0,1)=r(0,1);-32768;32767;",128,0,0,0
  15               		.stabs	"char:t(0,2)=@s8;r(0,2);0;255;",128,0,0,0
  16               		.stabs	"long int:t(0,3)=@s32;r(0,3);020000000000;017777777777;",128,0,0,0
  17               		.stabs	"unsigned int:t(0,4)=r(0,4);0;0177777;",128,0,0,0
  18               		.stabs	"long unsigned int:t(0,5)=@s32;r(0,5);0;037777777777;",128,0,0,0
  19               		.stabs	"long long int:t(0,6)=@s64;r(0,6);01000000000000000000000;0777777777777777777777;",128,0,0,
  20               		.stabs	"long long unsigned int:t(0,7)=@s64;r(0,7);0;01777777777777777777777;",128,0,0,0
  21               		.stabs	"short int:t(0,8)=r(0,8);-32768;32767;",128,0,0,0
  22               		.stabs	"short unsigned int:t(0,9)=r(0,9);0;0177777;",128,0,0,0
  23               		.stabs	"signed char:t(0,10)=@s8;r(0,10);-128;127;",128,0,0,0
  24               		.stabs	"unsigned char:t(0,11)=@s8;r(0,11);0;255;",128,0,0,0
  25               		.stabs	"float:t(0,12)=r(0,1);4;0;",128,0,0,0
  26               		.stabs	"double:t(0,13)=r(0,1);4;0;",128,0,0,0
  27               		.stabs	"long double:t(0,14)=r(0,1);4;0;",128,0,0,0
  28               		.stabs	"void:t(0,15)=(0,15)",128,0,0,0
  29               		.stabs	"tlc.h",130,0,0,0
  30               		.stabs	"main.h",130,0,0,0
  31               		.stabs	"/usr/lib/gcc/avr/4.6.0/../../../../avr/include/inttypes.h",130,0,0,0
  32               		.stabs	"/usr/lib/gcc/avr/4.6.0/include/stdint.h",130,0,0,0
  33               		.stabs	"/usr/lib/gcc/avr/4.6.0/../../../../avr/include/stdint.h",130,0,0,0
  34               		.stabs	"int8_t:t(5,1)=(0,10)",128,0,121,0
  35               		.stabs	"uint8_t:t(5,2)=(0,11)",128,0,122,0
  36               		.stabs	"int16_t:t(5,3)=(0,1)",128,0,123,0
  37               		.stabs	"uint16_t:t(5,4)=(0,4)",128,0,124,0
  38               		.stabs	"int32_t:t(5,5)=(0,3)",128,0,125,0
  39               		.stabs	"uint32_t:t(5,6)=(0,5)",128,0,126,0
  40               		.stabs	"int64_t:t(5,7)=(0,6)",128,0,128,0
  41               		.stabs	"uint64_t:t(5,8)=(0,7)",128,0,129,0
  42               		.stabs	"intptr_t:t(5,9)=(5,3)",128,0,142,0
  43               		.stabs	"uintptr_t:t(5,10)=(5,4)",128,0,147,0
  44               		.stabs	"int_least8_t:t(5,11)=(5,1)",128,0,159,0
  45               		.stabs	"uint_least8_t:t(5,12)=(5,2)",128,0,164,0
  46               		.stabs	"int_least16_t:t(5,13)=(5,3)",128,0,169,0
  47               		.stabs	"uint_least16_t:t(5,14)=(5,4)",128,0,174,0
  48               		.stabs	"int_least32_t:t(5,15)=(5,5)",128,0,179,0
  49               		.stabs	"uint_least32_t:t(5,16)=(5,6)",128,0,184,0
  50               		.stabs	"int_least64_t:t(5,17)=(5,7)",128,0,192,0
  51               		.stabs	"uint_least64_t:t(5,18)=(5,8)",128,0,199,0
  52               		.stabs	"int_fast8_t:t(5,19)=(5,1)",128,0,213,0
  53               		.stabs	"uint_fast8_t:t(5,20)=(5,2)",128,0,218,0
  54               		.stabs	"int_fast16_t:t(5,21)=(5,3)",128,0,223,0
  55               		.stabs	"uint_fast16_t:t(5,22)=(5,4)",128,0,228,0
  56               		.stabs	"int_fast32_t:t(5,23)=(5,5)",128,0,233,0
  57               		.stabs	"uint_fast32_t:t(5,24)=(5,6)",128,0,238,0
GAS LISTING /tmp/ccEGDR1z.s 			page 2


  58               		.stabs	"int_fast64_t:t(5,25)=(5,7)",128,0,246,0
  59               		.stabs	"uint_fast64_t:t(5,26)=(5,8)",128,0,253,0
  60               		.stabs	"intmax_t:t(5,27)=(5,7)",128,0,273,0
  61               		.stabs	"uintmax_t:t(5,28)=(5,8)",128,0,278,0
  62               		.stabn	162,0,0,0
  63               		.stabn	162,0,0,0
  64               		.stabs	"int_farptr_t:t(3,1)=(5,5)",128,0,77,0
  65               		.stabs	"uint_farptr_t:t(3,2)=(5,6)",128,0,81,0
  66               		.stabn	162,0,0,0
  67               		.stabs	"/usr/lib/gcc/avr/4.6.0/../../../../avr/include/avr/io.h",130,0,0,0
  68               		.stabs	"/usr/lib/gcc/avr/4.6.0/../../../../avr/include/avr/fuse.h",130,0,0,0
  69               		.stabs	"__fuse_t:t(7,1)=(7,2)=s3low:(0,11),0,8;high:(0,11),8,8;extended:(0,11),16,8;;",128,0,244,0
  70               		.stabn	162,0,0,0
  71               		.stabn	162,0,0,0
  72               		.stabs	"/usr/lib/gcc/avr/4.6.0/../../../../avr/include/avr/pgmspace.h",130,0,0,0
  73               		.stabs	"/usr/lib/gcc/avr/4.6.0/include/stddef.h",130,0,0,0
  74               		.stabs	"size_t:t(9,1)=(0,4)",128,0,212,0
  75               		.stabn	162,0,0,0
  76               		.stabs	"prog_void:t(8,1)=(8,2)=(8,2)",128,0,217,0
  77               		.stabs	"prog_char:t(8,3)=(8,4)=@s8;r(8,4);0;255;",128,0,218,0
  78               		.stabs	"prog_uchar:t(8,5)=(8,6)=@s8;r(8,6);0;255;",128,0,219,0
  79               		.stabs	"prog_int8_t:t(8,7)=(8,8)=(0,10)",128,0,221,0
  80               		.stabs	"prog_uint8_t:t(8,9)=(8,10)=(0,11)",128,0,222,0
  81               		.stabs	"prog_int16_t:t(8,11)=(8,12)=(0,1)",128,0,223,0
  82               		.stabs	"prog_uint16_t:t(8,13)=(8,14)=(0,4)",128,0,224,0
  83               		.stabs	"prog_int32_t:t(8,15)=(8,16)=(0,3)",128,0,225,0
  84               		.stabs	"prog_uint32_t:t(8,17)=(8,18)=(0,5)",128,0,226,0
  85               		.stabs	"prog_int64_t:t(8,19)=(8,20)=(0,6)",128,0,228,0
  86               		.stabs	"prog_uint64_t:t(8,21)=(8,22)=(0,7)",128,0,229,0
  87               		.stabn	162,0,0,0
  88               		.stabn	162,0,0,0
  89               		.stabn	162,0,0,0
  90               		.stabs	"tlc_init:F(0,15)",36,0,5,tlc_init
  91               	.global	tlc_init
  92               		.type	tlc_init, @function
  93               	tlc_init:
  94               		.stabd	46,0,0
   1:tlc.c         **** /* TLC CONTROL */
   2:tlc.c         **** 
   3:tlc.c         **** #include "tlc.h"
   4:tlc.c         **** 
   5:tlc.c         **** void tlc_init(void) {
  95               		.stabn	68,0,5,.LM0-.LFBB1
  96               	.LM0:
  97               	.LFBB1:
  98               	/* prologue: function */
  99               	/* frame size = 0 */
 100               	/* stack size = 0 */
 101               	.L__stack_usage = 0
   6:tlc.c         ****     XLAT_DDR  |= _BV(XLAT_PIN);
 102               		.stabn	68,0,6,.LM1-.LFBB1
 103               	.LM1:
 104 0000 219A      		sbi 36-0x20,1
   7:tlc.c         ****     XLAT_PRT  &= ~_BV(XLAT_PIN);
 105               		.stabn	68,0,7,.LM2-.LFBB1
 106               	.LM2:
 107 0002 2998      		cbi 37-0x20,1
GAS LISTING /tmp/ccEGDR1z.s 			page 3


   8:tlc.c         **** 
   9:tlc.c         ****     BLANK_DDR |= _BV(BLANK_PIN);
 108               		.stabn	68,0,9,.LM3-.LFBB1
 109               	.LM3:
 110 0004 229A      		sbi 36-0x20,2
  10:tlc.c         ****     GSCLK_DDR |= _BV(GSCLK_PIN);
 111               		.stabn	68,0,10,.LM4-.LFBB1
 112               	.LM4:
 113 0006 539A      		sbi 42-0x20,3
  11:tlc.c         **** 
  12:tlc.c         ****     BLANK_PRT |= _BV(BLANK_PIN);
 114               		.stabn	68,0,12,.LM5-.LFBB1
 115               	.LM5:
 116 0008 2A9A      		sbi 37-0x20,2
  13:tlc.c         **** 
  14:tlc.c         ****     // SPI initialization
  15:tlc.c         ****     SDAT_DDR |=  _BV(SDAT_PIN);
 117               		.stabn	68,0,15,.LM6-.LFBB1
 118               	.LM6:
 119 000a 239A      		sbi 36-0x20,3
  16:tlc.c         ****     SCLK_DDR |=  _BV(SCLK_PIN);
 120               		.stabn	68,0,16,.LM7-.LFBB1
 121               	.LM7:
 122 000c 259A      		sbi 36-0x20,5
  17:tlc.c         ****     SDSS_DDR |=  _BV(SDSS_PIN);
 123               		.stabn	68,0,17,.LM8-.LFBB1
 124               	.LM8:
 125 000e 229A      		sbi 36-0x20,2
  18:tlc.c         ****     SCLK_PRT &= ~_BV(SCLK_PIN);
 126               		.stabn	68,0,18,.LM9-.LFBB1
 127               	.LM9:
 128 0010 2D98      		cbi 37-0x20,5
  19:tlc.c         **** 
  20:tlc.c         ****     //SPSR = _BV(SPI2X);            // double speed SPI
  21:tlc.c         ****     SPCR = _BV(SPE) | _BV(MSTR);    // enable spi in master
 129               		.stabn	68,0,21,.LM10-.LFBB1
 130               	.LM10:
 131 0012 80E5      		ldi r24,lo8(80)
 132 0014 8CBD      		out 76-0x20,r24
  22:tlc.c         ****     SPCR |= _BV(SPR1);              // speed register (don't set this too fast)
 133               		.stabn	68,0,22,.LM11-.LFBB1
 134               	.LM11:
 135 0016 8CB5      		in r24,76-0x20
 136 0018 8260      		ori r24,lo8(2)
 137 001a 8CBD      		out 76-0x20,r24
  23:tlc.c         **** 
  24:tlc.c         ****     // BLANK counter hits every 4096 GSCLK cycles
  25:tlc.c         ****     TCCR1A = _BV(COM1B1);
 138               		.stabn	68,0,25,.LM12-.LFBB1
 139               	.LM12:
 140 001c 80E2      		ldi r24,lo8(32)
 141 001e 8093 8000 		sts 128,r24
  26:tlc.c         ****     TCCR1B = _BV(WGM13);
 142               		.stabn	68,0,26,.LM13-.LFBB1
 143               	.LM13:
 144 0022 E1E8      		ldi r30,lo8(129)
 145 0024 F0E0      		ldi r31,hi8(129)
GAS LISTING /tmp/ccEGDR1z.s 			page 4


 146 0026 80E1      		ldi r24,lo8(16)
 147 0028 8083      		st Z,r24
  27:tlc.c         ****     TCCR1B |= _BV(CS10);
 148               		.stabn	68,0,27,.LM14-.LFBB1
 149               	.LM14:
 150 002a 8081      		ld r24,Z
 151 002c 8160      		ori r24,lo8(1)
 152 002e 8083      		st Z,r24
  28:tlc.c         ****     OCR1A = 1;
 153               		.stabn	68,0,28,.LM15-.LFBB1
 154               	.LM15:
 155 0030 81E0      		ldi r24,lo8(1)
 156 0032 90E0      		ldi r25,hi8(1)
 157 0034 9093 8900 		sts 136+1,r25
 158 0038 8093 8800 		sts 136,r24
  29:tlc.c         ****     OCR1B = 2;
 159               		.stabn	68,0,29,.LM16-.LFBB1
 160               	.LM16:
 161 003c 82E0      		ldi r24,lo8(2)
 162 003e 90E0      		ldi r25,hi8(2)
 163 0040 9093 8B00 		sts 138+1,r25
 164 0044 8093 8A00 		sts 138,r24
  30:tlc.c         ****     ICR1 = 18432; // = (GSCLKPD+1)*4096/2
 165               		.stabn	68,0,30,.LM17-.LFBB1
 166               	.LM17:
 167 0048 80E0      		ldi r24,lo8(18432)
 168 004a 98E4      		ldi r25,hi8(18432)
 169 004c 9093 8700 		sts 134+1,r25
 170 0050 8093 8600 		sts 134,r24
  31:tlc.c         **** 
  32:tlc.c         ****     // GSCLK
  33:tlc.c         ****     TCCR2A = (_BV(COM2B1) | _BV(WGM21) | _BV(WGM20));
 171               		.stabn	68,0,33,.LM18-.LFBB1
 172               	.LM18:
 173 0054 83E2      		ldi r24,lo8(35)
 174 0056 8093 B000 		sts 176,r24
  34:tlc.c         ****     TCCR2B = _BV(WGM22);
 175               		.stabn	68,0,34,.LM19-.LFBB1
 176               	.LM19:
 177 005a E1EB      		ldi r30,lo8(177)
 178 005c F0E0      		ldi r31,hi8(177)
 179 005e 88E0      		ldi r24,lo8(8)
 180 0060 8083      		st Z,r24
  35:tlc.c         ****     TCCR2B |= _BV(CS20);
 181               		.stabn	68,0,35,.LM20-.LFBB1
 182               	.LM20:
 183 0062 8081      		ld r24,Z
 184 0064 8160      		ori r24,lo8(1)
 185 0066 8083      		st Z,r24
  36:tlc.c         ****     OCR2A = 9;
 186               		.stabn	68,0,36,.LM21-.LFBB1
 187               	.LM21:
 188 0068 89E0      		ldi r24,lo8(9)
 189 006a 8093 B300 		sts 179,r24
  37:tlc.c         ****     OCR2B = 0;
 190               		.stabn	68,0,37,.LM22-.LFBB1
 191               	.LM22:
GAS LISTING /tmp/ccEGDR1z.s 			page 5


 192 006e 1092 B400 		sts 180,__zero_reg__
 193               	/* epilogue start */
  38:tlc.c         **** }
 194               		.stabn	68,0,38,.LM23-.LFBB1
 195               	.LM23:
 196 0072 0895      		ret
 197               		.size	tlc_init, .-tlc_init
 198               	.Lscope1:
 199               		.stabs	"",36,0,0,.Lscope1-.LFBB1
 200               		.stabd	78,0,0
 201               		.stabs	"set:F(0,15)",36,0,184,set
 202               		.stabs	"driver:P(0,16)=*(0,17)=B(5,2)",64,0,184,18
 203               		.stabs	"posn:P(5,2)",64,0,184,22
 204               		.stabs	"value:P(5,4)",64,0,184,26
 205               	.global	set
 206               		.type	set, @function
 207               	set:
 208               		.stabd	46,0,0
  39:tlc.c         **** 
  40:tlc.c         **** void tlc_drive(void) {
  41:tlc.c         ****     uint8_t chip, chip1, out;
  42:tlc.c         **** 
  43:tlc.c         **** #ifdef FIXBOARD
  44:tlc.c         ****     uint16_t tmp;
  45:tlc.c         **** #if (FIXBOARD == FIX0)
  46:tlc.c         ****     // 2nd red pixel -> last blu channel
  47:tlc.c         ****     tmp = get(tlc[0], 4);
  48:tlc.c         ****     set(tlc[2],13, tmp);
  49:tlc.c         ****     set(tlc[2],14, tmp);
  50:tlc.c         ****     set(tlc[2],15, tmp);
  51:tlc.c         **** 
  52:tlc.c         ****     // 3rd red pixel -> last red channel
  53:tlc.c         ****     tmp = get(tlc[0], 7);
  54:tlc.c         ****     set(tlc[0],13, tmp);
  55:tlc.c         ****     set(tlc[0],14, tmp);
  56:tlc.c         ****     set(tlc[0],15, tmp);
  57:tlc.c         **** 
  58:tlc.c         ****     // 3th grn pixel -> last grn channel
  59:tlc.c         ****     tmp = get(tlc[1], 7);
  60:tlc.c         ****     set(tlc[1],13, tmp);
  61:tlc.c         ****     set(tlc[1],14, tmp);
  62:tlc.c         ****     set(tlc[1],15, tmp);
  63:tlc.c         **** 
  64:tlc.c         ****     set(tlc[0],4,0);
  65:tlc.c         ****     set(tlc[0],5,0);
  66:tlc.c         ****     set(tlc[0],6,0);
  67:tlc.c         **** 
  68:tlc.c         ****     set(tlc[0],7,0);
  69:tlc.c         ****     set(tlc[0],8,0);
  70:tlc.c         ****     set(tlc[0],9,0);
  71:tlc.c         **** 
  72:tlc.c         ****     set(tlc[1],7,0);
  73:tlc.c         ****     set(tlc[1],8,0);
  74:tlc.c         ****     set(tlc[1],9,0);
  75:tlc.c         **** #elif (FIXBOARD == FIX1)
  76:tlc.c         ****     // 3rd red pixel -> last red channel
  77:tlc.c         ****     tmp = get(tlc[0], 7);
GAS LISTING /tmp/ccEGDR1z.s 			page 6


  78:tlc.c         ****     set(tlc[0],13, tmp);
  79:tlc.c         ****     set(tlc[0],14, tmp);
  80:tlc.c         ****     set(tlc[0],15, tmp);
  81:tlc.c         **** 
  82:tlc.c         ****     set(tlc[0],7,0);
  83:tlc.c         ****     set(tlc[0],8,0);
  84:tlc.c         ****     set(tlc[0],9,0);
  85:tlc.c         **** #elif (FIXBOARD == FIX3)
  86:tlc.c         ****     // 3rd red pixel -> last red channel
  87:tlc.c         ****     tmp = get(tlc[0], 7);
  88:tlc.c         ****     set(tlc[0],13, tmp);
  89:tlc.c         ****     set(tlc[0],14, tmp);
  90:tlc.c         ****     set(tlc[0],15, tmp);
  91:tlc.c         **** 
  92:tlc.c         ****     // 4th red pixel -> last blu channel
  93:tlc.c         ****     tmp = get(tlc[0], 10);
  94:tlc.c         ****     set(tlc[2],13, tmp);
  95:tlc.c         ****     set(tlc[2],14, tmp);
  96:tlc.c         ****     set(tlc[2],15, tmp);
  97:tlc.c         **** 
  98:tlc.c         ****     // 4th grn pixel -> last grn channel
  99:tlc.c         ****     tmp = get(tlc[1], 10);
 100:tlc.c         ****     set(tlc[1],13, tmp);
 101:tlc.c         ****     set(tlc[1],14, tmp);
 102:tlc.c         ****     set(tlc[1],15, tmp);
 103:tlc.c         **** 
 104:tlc.c         ****     set(tlc[0],7,0);
 105:tlc.c         ****     set(tlc[0],8,0);
 106:tlc.c         ****     set(tlc[0],9,0);
 107:tlc.c         **** 
 108:tlc.c         ****     set(tlc[0],10,0);
 109:tlc.c         ****     set(tlc[0],11,0);
 110:tlc.c         ****     set(tlc[0],12,0);
 111:tlc.c         **** 
 112:tlc.c         ****     set(tlc[1],10,0);
 113:tlc.c         ****     set(tlc[1],11,0);
 114:tlc.c         ****     set(tlc[1],12,0);
 115:tlc.c         **** #elif (FIXBOARD == FIX5)
 116:tlc.c         ****     // 3rd red pixel -> last red channel
 117:tlc.c         ****     tmp = get(tlc[0], 7);
 118:tlc.c         ****     set(tlc[0],13, tmp);
 119:tlc.c         ****     set(tlc[0],14, tmp);
 120:tlc.c         ****     set(tlc[0],15, tmp);
 121:tlc.c         **** 
 122:tlc.c         ****     // 4th grn pixel -> last blu channel
 123:tlc.c         ****     tmp = get(tlc[1], 10);
 124:tlc.c         ****     set(tlc[2],13, tmp);
 125:tlc.c         ****     set(tlc[2],14, tmp);
 126:tlc.c         ****     set(tlc[2],15, tmp);
 127:tlc.c         **** 
 128:tlc.c         ****     set(tlc[0],7,0);
 129:tlc.c         ****     set(tlc[0],8,0);
 130:tlc.c         ****     set(tlc[0],9,0);
 131:tlc.c         **** 
 132:tlc.c         ****     set(tlc[1],10,0);
 133:tlc.c         ****     set(tlc[1],11,0);
 134:tlc.c         ****     set(tlc[1],12,0);
GAS LISTING /tmp/ccEGDR1z.s 			page 7


 135:tlc.c         **** #elif (FIXBOARD == FIX9)
 136:tlc.c         ****     // 4th grn pixel -> last grn channel
 137:tlc.c         ****     tmp = get(tlc[1], 10);
 138:tlc.c         ****     set(tlc[1],13, tmp);
 139:tlc.c         ****     set(tlc[1],14, tmp);
 140:tlc.c         ****     set(tlc[1],15, tmp);
 141:tlc.c         ****     
 142:tlc.c         ****     set(tlc[1],10,0);
 143:tlc.c         ****     set(tlc[1],11,0);
 144:tlc.c         ****     set(tlc[1],12,0);
 145:tlc.c         **** #endif
 146:tlc.c         **** #endif
 147:tlc.c         **** 
 148:tlc.c         **** #if (CTRLR_TYPE == CTRLR_RGB)
 149:tlc.c         ****     for ( chip1=3 ; chip1>0 ; chip1-- ) 
 150:tlc.c         **** #elif (CTRLR_TYPE == CTRLR_UVS)
 151:tlc.c         ****     for ( chip1=2 ; chip1>0 ; chip1-- ) 
 152:tlc.c         **** #endif /* CTRLR_TYPE */
 153:tlc.c         ****     {
 154:tlc.c         ****         chip = chip1 - 1;
 155:tlc.c         **** 
 156:tlc.c         ****         for ( out=0 ; out<24 ; out++ ) {
 157:tlc.c         ****             SPDR = tlc[chip][out];
 158:tlc.c         ****             while ( !(SPSR & _BV(SPIF)) );
 159:tlc.c         **** 
 160:tlc.c         ****             // this is bitbang mode...  I wouldn't recommend it
 161:tlc.c         ****             /*
 162:tlc.c         ****             for ( val1=8 ; val1>0 ; val1-- ) {
 163:tlc.c         ****                 val = val1 - 1;
 164:tlc.c         **** 
 165:tlc.c         ****                 _OFF(SCLK_PRT, SCLK_PIN);
 166:tlc.c         ****                 _delay_us(SCLKHPD);
 167:tlc.c         ****                 if ( ( tlc[chip][out] >> val ) & 1 ) _ON(SDAT_PRT, SDAT_PIN); else _OFF(SDAT_PRT, S
 168:tlc.c         ****                 _delay_us(SCLKHPD);
 169:tlc.c         ****                 _ON(SCLK_PRT, SCLK_PIN);
 170:tlc.c         ****                 _delay_us(SCLKPD);
 171:tlc.c         ****             }
 172:tlc.c         ****             // */
 173:tlc.c         ****         }
 174:tlc.c         ****     }
 175:tlc.c         **** 
 176:tlc.c         ****     // pulse the latch
 177:tlc.c         ****     _ON(XLAT_PRT, XLAT_PIN);
 178:tlc.c         ****     _delay_us(XLATPD);
 179:tlc.c         ****     _OFF(XLAT_PRT, XLAT_PIN);
 180:tlc.c         ****     _delay_us(XLATPD);
 181:tlc.c         **** }
 182:tlc.c         **** 
 183:tlc.c         **** /* HELPER FUNCTIONS */
 184:tlc.c         **** void set(volatile uint8_t driver[], uint8_t posn, uint16_t value) {
 209               		.stabn	68,0,184,.LM24-.LFBB2
 210               	.LM24:
 211               	.LFBB2:
 212               	/* prologue: function */
 213               	/* frame size = 0 */
 214               	/* stack size = 0 */
 215               	.L__stack_usage = 0
GAS LISTING /tmp/ccEGDR1z.s 			page 8


 216 0074 9C01      		movw r18,r24
 217 0076 DA01      		movw r26,r20
 185:tlc.c         ****     // store data to the packed driver byte array
 186:tlc.c         ****     uint8_t idx;
 187:tlc.c         **** 
 188:tlc.c         ****     if ( posn%2 ) {
 218               		.stabn	68,0,188,.LM25-.LFBB2
 219               	.LM25:
 220 0078 70E0      		ldi r23,lo8(0)
 221               	.LBB36:
 222               	.LBB37:
 189:tlc.c         ****         // for an odd position number, the base index (index of the full byte)
 190:tlc.c         ****         // is (23 - 3*odd/2 - 1)
 191:tlc.c         ****         idx = 22 - ((3*posn)>>1);
 223               		.stabn	68,0,191,.LM26-.LFBB2
 224               	.LM26:
 225 007a CB01      		movw r24,r22
 226 007c 880F      		lsl r24
 227 007e 991F      		rol r25
 228 0080 860F      		add r24,r22
 229 0082 971F      		adc r25,r23
 230 0084 9595      		asr r25
 231 0086 8795      		ror r24
 232               	.LBE37:
 233               	.LBE36:
 188:tlc.c         ****     if ( posn%2 ) {
 234               		.stabn	68,0,188,.LM27-.LFBB2
 235               	.LM27:
 236 0088 60FD      		sbrc r22,0
 237 008a 00C0      		rjmp .L6
 192:tlc.c         ****         driver[idx] = value >> 4;
 193:tlc.c         ****         driver[idx+1] = ( (value & 0x00F) << 4 ) | ( driver[idx+1] & 0x0F );
 194:tlc.c         ****     } else {
 195:tlc.c         ****         // for an even position number, the base index is (23 - 3*even/2)
 196:tlc.c         ****         idx = 23 - ((3*posn)>>1);
 238               		.stabn	68,0,196,.LM28-.LFBB2
 239               	.LM28:
 240 008c 97E1      		ldi r25,lo8(23)
 241 008e 981B      		sub r25,r24
 197:tlc.c         ****         driver[idx-1] = ( driver[idx-1] & 0xF0 ) | ( (value >> 8) & 0x00F );
 242               		.stabn	68,0,197,.LM29-.LFBB2
 243               	.LM29:
 244 0090 892F      		mov r24,r25
 245 0092 90E0      		ldi r25,lo8(0)
 246 0094 FC01      		movw r30,r24
 247 0096 3197      		sbiw r30,1
 248 0098 E20F      		add r30,r18
 249 009a F31F      		adc r31,r19
 250 009c 4081      		ld r20,Z
 251 009e 407F      		andi r20,lo8(-16)
 252 00a0 5B2F      		mov r21,r27
 253 00a2 5F70      		andi r21,lo8(15)
 254 00a4 452B      		or r20,r21
 255 00a6 4083      		st Z,r20
 198:tlc.c         ****         driver[idx] = value;
 256               		.stabn	68,0,198,.LM30-.LFBB2
 257               	.LM30:
GAS LISTING /tmp/ccEGDR1z.s 			page 9


 258 00a8 820F      		add r24,r18
 259 00aa 931F      		adc r25,r19
 260 00ac FC01      		movw r30,r24
 261 00ae A083      		st Z,r26
 262 00b0 0895      		ret
 263               	.L6:
 264               	.LBB39:
 265               	.LBB38:
 191:tlc.c         ****         idx = 22 - ((3*posn)>>1);
 266               		.stabn	68,0,191,.LM31-.LFBB2
 267               	.LM31:
 268 00b2 46E1      		ldi r20,lo8(22)
 269 00b4 481B      		sub r20,r24
 192:tlc.c         ****         driver[idx] = value >> 4;
 270               		.stabn	68,0,192,.LM32-.LFBB2
 271               	.LM32:
 272 00b6 50E0      		ldi r21,lo8(0)
 273 00b8 F901      		movw r30,r18
 274 00ba E40F      		add r30,r20
 275 00bc F51F      		adc r31,r21
 276 00be CD01      		movw r24,r26
 277 00c0 9295      		swap r25
 278 00c2 8295      		swap r24
 279 00c4 8F70      		andi r24,0x0f
 280 00c6 8927      		eor r24,r25
 281 00c8 9F70      		andi r25,0x0f
 282 00ca 8927      		eor r24,r25
 283 00cc 8083      		st Z,r24
 193:tlc.c         ****         driver[idx+1] = ( (value & 0x00F) << 4 ) | ( driver[idx+1] & 0x0F );
 284               		.stabn	68,0,193,.LM33-.LFBB2
 285               	.LM33:
 286 00ce FA01      		movw r30,r20
 287 00d0 3196      		adiw r30,1
 288 00d2 E20F      		add r30,r18
 289 00d4 F31F      		adc r31,r19
 290 00d6 8081      		ld r24,Z
 291 00d8 8F70      		andi r24,lo8(15)
 292 00da A295      		swap r26
 293 00dc A07F      		andi r26,lo8(-16)
 294 00de 8A2B      		or r24,r26
 295 00e0 8083      		st Z,r24
 296 00e2 0895      		ret
 297               	.LBE38:
 298               	.LBE39:
 299               		.size	set, .-set
 300               	.Lscope2:
 301               		.stabs	"",36,0,0,.Lscope2-.LFBB2
 302               		.stabd	78,0,0
 303               		.stabs	"get:F(5,4)",36,0,202,get
 304               		.stabs	"driver:P(0,16)",64,0,202,24
 305               		.stabs	"posn:P(5,2)",64,0,202,22
 306               	.global	get
 307               		.type	get, @function
 308               	get:
 309               		.stabd	46,0,0
 199:tlc.c         ****     }
 200:tlc.c         **** }
GAS LISTING /tmp/ccEGDR1z.s 			page 10


 201:tlc.c         **** 
 202:tlc.c         **** uint16_t get(volatile uint8_t driver[], uint8_t posn) {
 310               		.stabn	68,0,202,.LM34-.LFBB3
 311               	.LM34:
 312               	.LFBB3:
 313               	/* prologue: function */
 314               	/* frame size = 0 */
 315               	/* stack size = 0 */
 316               	.L__stack_usage = 0
 203:tlc.c         ****     // get the value of a driver from the byte array
 204:tlc.c         ****     uint8_t idx;
 205:tlc.c         **** 
 206:tlc.c         ****     if ( posn%2 ) {
 317               		.stabn	68,0,206,.LM35-.LFBB3
 318               	.LM35:
 319 00e4 70E0      		ldi r23,lo8(0)
 320               	.LBB42:
 321               	.LBB43:
 207:tlc.c         ****         idx = 22 - ((3*posn)>>1);
 322               		.stabn	68,0,207,.LM36-.LFBB3
 323               	.LM36:
 324 00e6 9B01      		movw r18,r22
 325 00e8 220F      		lsl r18
 326 00ea 331F      		rol r19
 327 00ec 260F      		add r18,r22
 328 00ee 371F      		adc r19,r23
 329 00f0 3595      		asr r19
 330 00f2 2795      		ror r18
 331               	.LBE43:
 332               	.LBE42:
 206:tlc.c         ****     if ( posn%2 ) {
 333               		.stabn	68,0,206,.LM37-.LFBB3
 334               	.LM37:
 335 00f4 60FD      		sbrc r22,0
 336 00f6 00C0      		rjmp .L10
 208:tlc.c         ****         return ( ((uint16_t) driver[idx]) << 4 ) | (driver[idx+1] >> 4);
 209:tlc.c         ****     } else {
 210:tlc.c         ****         idx = 23 - ((3*posn)>>1);
 337               		.stabn	68,0,210,.LM38-.LFBB3
 338               	.LM38:
 339 00f8 37E1      		ldi r19,lo8(23)
 340 00fa 321B      		sub r19,r18
 211:tlc.c         ****         return ( ( (uint16_t) (driver[idx-1]) & 0x0F ) << 8 ) | driver[idx];
 341               		.stabn	68,0,211,.LM39-.LFBB3
 342               	.LM39:
 343 00fc 232F      		mov r18,r19
 344 00fe 30E0      		ldi r19,lo8(0)
 345 0100 F901      		movw r30,r18
 346 0102 3197      		sbiw r30,1
 347 0104 E80F      		add r30,r24
 348 0106 F91F      		adc r31,r25
 349 0108 4081      		ld r20,Z
 350 010a 280F      		add r18,r24
 351 010c 391F      		adc r19,r25
 352 010e F901      		movw r30,r18
 353 0110 2081      		ld r18,Z
 354 0112 842F      		mov r24,r20
GAS LISTING /tmp/ccEGDR1z.s 			page 11


 355 0114 90E0      		ldi r25,lo8(0)
 356 0116 8F70      		andi r24,lo8(15)
 357 0118 9070      		andi r25,hi8(15)
 358 011a 982F      		mov r25,r24
 359 011c 8827      		clr r24
 360 011e 30E0      		ldi r19,lo8(0)
 361 0120 822B      		or r24,r18
 362 0122 932B      		or r25,r19
 212:tlc.c         ****     }
 213:tlc.c         **** 
 214:tlc.c         **** }
 363               		.stabn	68,0,214,.LM40-.LFBB3
 364               	.LM40:
 365 0124 0895      		ret
 366               	.L10:
 367               	.LBB45:
 368               	.LBB44:
 207:tlc.c         ****         idx = 22 - ((3*posn)>>1);
 369               		.stabn	68,0,207,.LM41-.LFBB3
 370               	.LM41:
 371 0126 E6E1      		ldi r30,lo8(22)
 372 0128 E21B      		sub r30,r18
 208:tlc.c         ****         return ( ((uint16_t) driver[idx]) << 4 ) | (driver[idx+1] >> 4);
 373               		.stabn	68,0,208,.LM42-.LFBB3
 374               	.LM42:
 375 012a F0E0      		ldi r31,lo8(0)
 376 012c DC01      		movw r26,r24
 377 012e AE0F      		add r26,r30
 378 0130 BF1F      		adc r27,r31
 379 0132 2C91      		ld r18,X
 380 0134 3196      		adiw r30,1
 381 0136 E80F      		add r30,r24
 382 0138 F91F      		adc r31,r25
 383 013a 8081      		ld r24,Z
 384 013c 8295      		swap r24
 385 013e 8F70      		andi r24,lo8(15)
 386 0140 90E0      		ldi r25,lo8(0)
 387 0142 30E0      		ldi r19,lo8(0)
 388 0144 2295      		swap r18
 389 0146 3295      		swap r19
 390 0148 307F      		andi r19,0xf0
 391 014a 3227      		eor r19,r18
 392 014c 207F      		andi r18,0xf0
 393 014e 3227      		eor r19,r18
 394 0150 822B      		or r24,r18
 395 0152 932B      		or r25,r19
 396 0154 0895      		ret
 397               	.LBE44:
 398               	.LBE45:
 399               		.size	get, .-get
 400               	.Lscope3:
 401               		.stabs	"",36,0,0,.Lscope3-.LFBB3
 402               		.stabd	78,0,0
 403               		.stabs	"tlc_drive:F(0,15)",36,0,40,tlc_drive
 404               	.global	tlc_drive
 405               		.type	tlc_drive, @function
 406               	tlc_drive:
GAS LISTING /tmp/ccEGDR1z.s 			page 12


 407               		.stabd	46,0,0
  40:tlc.c         **** void tlc_drive(void) {
 408               		.stabn	68,0,40,.LM43-.LFBB4
 409               	.LM43:
 410               	.LFBB4:
 411 0156 CF93      		push r28
 412 0158 DF93      		push r29
 413               	/* prologue: function */
 414               	/* frame size = 0 */
 415               	/* stack size = 2 */
 416               	.L__stack_usage = 2
 117:tlc.c         ****     tmp = get(tlc[0], 7);
 417               		.stabn	68,0,117,.LM44-.LFBB4
 418               	.LM44:
 419 015a 80E0      		ldi r24,lo8(tlc)
 420 015c 90E0      		ldi r25,hi8(tlc)
 421 015e 67E0      		ldi r22,lo8(7)
 422 0160 0E94 0000 		call get
 423 0164 EC01      		movw r28,r24
 118:tlc.c         ****     set(tlc[0],13, tmp);
 424               		.stabn	68,0,118,.LM45-.LFBB4
 425               	.LM45:
 426 0166 80E0      		ldi r24,lo8(tlc)
 427 0168 90E0      		ldi r25,hi8(tlc)
 428 016a 6DE0      		ldi r22,lo8(13)
 429 016c AE01      		movw r20,r28
 430 016e 0E94 0000 		call set
 119:tlc.c         ****     set(tlc[0],14, tmp);
 431               		.stabn	68,0,119,.LM46-.LFBB4
 432               	.LM46:
 433 0172 80E0      		ldi r24,lo8(tlc)
 434 0174 90E0      		ldi r25,hi8(tlc)
 435 0176 6EE0      		ldi r22,lo8(14)
 436 0178 AE01      		movw r20,r28
 437 017a 0E94 0000 		call set
 120:tlc.c         ****     set(tlc[0],15, tmp);
 438               		.stabn	68,0,120,.LM47-.LFBB4
 439               	.LM47:
 440 017e 80E0      		ldi r24,lo8(tlc)
 441 0180 90E0      		ldi r25,hi8(tlc)
 442 0182 6FE0      		ldi r22,lo8(15)
 443 0184 AE01      		movw r20,r28
 444 0186 0E94 0000 		call set
 123:tlc.c         ****     tmp = get(tlc[1], 10);
 445               		.stabn	68,0,123,.LM48-.LFBB4
 446               	.LM48:
 447 018a 80E0      		ldi r24,lo8(tlc+24)
 448 018c 90E0      		ldi r25,hi8(tlc+24)
 449 018e 6AE0      		ldi r22,lo8(10)
 450 0190 0E94 0000 		call get
 451 0194 EC01      		movw r28,r24
 124:tlc.c         ****     set(tlc[2],13, tmp);
 452               		.stabn	68,0,124,.LM49-.LFBB4
 453               	.LM49:
 454 0196 80E0      		ldi r24,lo8(tlc+48)
 455 0198 90E0      		ldi r25,hi8(tlc+48)
 456 019a 6DE0      		ldi r22,lo8(13)
GAS LISTING /tmp/ccEGDR1z.s 			page 13


 457 019c AE01      		movw r20,r28
 458 019e 0E94 0000 		call set
 125:tlc.c         ****     set(tlc[2],14, tmp);
 459               		.stabn	68,0,125,.LM50-.LFBB4
 460               	.LM50:
 461 01a2 80E0      		ldi r24,lo8(tlc+48)
 462 01a4 90E0      		ldi r25,hi8(tlc+48)
 463 01a6 6EE0      		ldi r22,lo8(14)
 464 01a8 AE01      		movw r20,r28
 465 01aa 0E94 0000 		call set
 126:tlc.c         ****     set(tlc[2],15, tmp);
 466               		.stabn	68,0,126,.LM51-.LFBB4
 467               	.LM51:
 468 01ae 80E0      		ldi r24,lo8(tlc+48)
 469 01b0 90E0      		ldi r25,hi8(tlc+48)
 470 01b2 6FE0      		ldi r22,lo8(15)
 471 01b4 AE01      		movw r20,r28
 472 01b6 0E94 0000 		call set
 128:tlc.c         ****     set(tlc[0],7,0);
 473               		.stabn	68,0,128,.LM52-.LFBB4
 474               	.LM52:
 475 01ba 80E0      		ldi r24,lo8(tlc)
 476 01bc 90E0      		ldi r25,hi8(tlc)
 477 01be 67E0      		ldi r22,lo8(7)
 478 01c0 40E0      		ldi r20,lo8(0)
 479 01c2 50E0      		ldi r21,hi8(0)
 480 01c4 0E94 0000 		call set
 129:tlc.c         ****     set(tlc[0],8,0);
 481               		.stabn	68,0,129,.LM53-.LFBB4
 482               	.LM53:
 483 01c8 80E0      		ldi r24,lo8(tlc)
 484 01ca 90E0      		ldi r25,hi8(tlc)
 485 01cc 68E0      		ldi r22,lo8(8)
 486 01ce 40E0      		ldi r20,lo8(0)
 487 01d0 50E0      		ldi r21,hi8(0)
 488 01d2 0E94 0000 		call set
 130:tlc.c         ****     set(tlc[0],9,0);
 489               		.stabn	68,0,130,.LM54-.LFBB4
 490               	.LM54:
 491 01d6 80E0      		ldi r24,lo8(tlc)
 492 01d8 90E0      		ldi r25,hi8(tlc)
 493 01da 69E0      		ldi r22,lo8(9)
 494 01dc 40E0      		ldi r20,lo8(0)
 495 01de 50E0      		ldi r21,hi8(0)
 496 01e0 0E94 0000 		call set
 132:tlc.c         ****     set(tlc[1],10,0);
 497               		.stabn	68,0,132,.LM55-.LFBB4
 498               	.LM55:
 499 01e4 80E0      		ldi r24,lo8(tlc+24)
 500 01e6 90E0      		ldi r25,hi8(tlc+24)
 501 01e8 6AE0      		ldi r22,lo8(10)
 502 01ea 40E0      		ldi r20,lo8(0)
 503 01ec 50E0      		ldi r21,hi8(0)
 504 01ee 0E94 0000 		call set
 133:tlc.c         ****     set(tlc[1],11,0);
 505               		.stabn	68,0,133,.LM56-.LFBB4
 506               	.LM56:
GAS LISTING /tmp/ccEGDR1z.s 			page 14


 507 01f2 80E0      		ldi r24,lo8(tlc+24)
 508 01f4 90E0      		ldi r25,hi8(tlc+24)
 509 01f6 6BE0      		ldi r22,lo8(11)
 510 01f8 40E0      		ldi r20,lo8(0)
 511 01fa 50E0      		ldi r21,hi8(0)
 512 01fc 0E94 0000 		call set
 134:tlc.c         ****     set(tlc[1],12,0);
 513               		.stabn	68,0,134,.LM57-.LFBB4
 514               	.LM57:
 515 0200 80E0      		ldi r24,lo8(tlc+24)
 516 0202 90E0      		ldi r25,hi8(tlc+24)
 517 0204 6CE0      		ldi r22,lo8(12)
 518 0206 40E0      		ldi r20,lo8(0)
 519 0208 50E0      		ldi r21,hi8(0)
 520 020a 0E94 0000 		call set
 521 020e 62E0      		ldi r22,lo8(2)
 522               	.L14:
 523 0210 462F      		mov r20,r22
 524 0212 50E0      		ldi r21,lo8(0)
 525 0214 80E0      		ldi r24,lo8(0)
 526 0216 90E0      		ldi r25,hi8(0)
 527 0218 9A01      		movw r18,r20
 528 021a 220F      		lsl r18
 529 021c 331F      		rol r19
 157:tlc.c         ****             SPDR = tlc[chip][out];
 530               		.stabn	68,0,157,.LM58-.LFBB4
 531               	.LM58:
 532 021e 240F      		add r18,r20
 533 0220 351F      		adc r19,r21
 534 0222 220F      		lsl r18
 535 0224 331F      		rol r19
 536 0226 220F      		lsl r18
 537 0228 331F      		rol r19
 538 022a 220F      		lsl r18
 539 022c 331F      		rol r19
 540               	.L13:
 541 022e F901      		movw r30,r18
 542 0230 E80F      		add r30,r24
 543 0232 F91F      		adc r31,r25
 544 0234 E050      		subi r30,lo8(-(tlc))
 545 0236 F040      		sbci r31,hi8(-(tlc))
 546 0238 4081      		ld r20,Z
 547 023a 4EBD      		out 78-0x20,r20
 548               	.L12:
 158:tlc.c         ****             while ( !(SPSR & _BV(SPIF)) );
 549               		.stabn	68,0,158,.LM59-.LFBB4
 550               	.LM59:
 551 023c 0DB4      		in __tmp_reg__,77-0x20
 552 023e 07FE      		sbrs __tmp_reg__,7
 553 0240 00C0      		rjmp .L12
 158:tlc.c         ****             while ( !(SPSR & _BV(SPIF)) );
 554               		.stabn	68,0,158,.LM60-.LFBB4
 555               	.LM60:
 556 0242 0196      		adiw r24,1
 156:tlc.c         ****         for ( out=0 ; out<24 ; out++ ) {
 557               		.stabn	68,0,156,.LM61-.LFBB4
 558               	.LM61:
GAS LISTING /tmp/ccEGDR1z.s 			page 15


 559 0244 8831      		cpi r24,24
 560 0246 9105      		cpc r25,__zero_reg__
 561 0248 01F4      		brne .L13
 562 024a 6150      		subi r22,1
 563 024c 00F4      		brcc .L14
 177:tlc.c         ****     _ON(XLAT_PRT, XLAT_PIN);
 564               		.stabn	68,0,177,.LM62-.LFBB4
 565               	.LM62:
 566 024e 299A      		sbi 37-0x20,1
 567               	.LBB46:
 568               	.LBB47:
 569               	.LBB48:
 570               	.LBB49:
 571               		.stabs	"/usr/lib/gcc/avr/4.6.0/../../../../avr/include/util/delay_basic.h",132,0,0,.Ltext1
 572               	.Ltext1:
   1:/usr/lib/gcc/avr/4.6.0/../../../../avr/include/util/delay_basic.h **** /* Copyright (c) 2002, Marek Michalkiewicz
   2:/usr/lib/gcc/avr/4.6.0/../../../../avr/include/util/delay_basic.h ****    Copyright (c) 2007 Joerg Wunsch
   3:/usr/lib/gcc/avr/4.6.0/../../../../avr/include/util/delay_basic.h ****    All rights reserved.
   4:/usr/lib/gcc/avr/4.6.0/../../../../avr/include/util/delay_basic.h **** 
   5:/usr/lib/gcc/avr/4.6.0/../../../../avr/include/util/delay_basic.h ****    Redistribution and use in source and binary forms, with or without
   6:/usr/lib/gcc/avr/4.6.0/../../../../avr/include/util/delay_basic.h ****    modification, are permitted provided that the following conditions are met:
   7:/usr/lib/gcc/avr/4.6.0/../../../../avr/include/util/delay_basic.h **** 
   8:/usr/lib/gcc/avr/4.6.0/../../../../avr/include/util/delay_basic.h ****    * Redistributions of source code must retain the above copyright
   9:/usr/lib/gcc/avr/4.6.0/../../../../avr/include/util/delay_basic.h ****      notice, this list of conditions and the following disclaimer.
  10:/usr/lib/gcc/avr/4.6.0/../../../../avr/include/util/delay_basic.h **** 
  11:/usr/lib/gcc/avr/4.6.0/../../../../avr/include/util/delay_basic.h ****    * Redistributions in binary form must reproduce the above copyright
  12:/usr/lib/gcc/avr/4.6.0/../../../../avr/include/util/delay_basic.h ****      notice, this list of conditions and the following disclaimer in
  13:/usr/lib/gcc/avr/4.6.0/../../../../avr/include/util/delay_basic.h ****      the documentation and/or other materials provided with the
  14:/usr/lib/gcc/avr/4.6.0/../../../../avr/include/util/delay_basic.h ****      distribution.
  15:/usr/lib/gcc/avr/4.6.0/../../../../avr/include/util/delay_basic.h **** 
  16:/usr/lib/gcc/avr/4.6.0/../../../../avr/include/util/delay_basic.h ****    * Neither the name of the copyright holders nor the names of
  17:/usr/lib/gcc/avr/4.6.0/../../../../avr/include/util/delay_basic.h ****      contributors may be used to endorse or promote products derived
  18:/usr/lib/gcc/avr/4.6.0/../../../../avr/include/util/delay_basic.h ****      from this software without specific prior written permission.
  19:/usr/lib/gcc/avr/4.6.0/../../../../avr/include/util/delay_basic.h **** 
  20:/usr/lib/gcc/avr/4.6.0/../../../../avr/include/util/delay_basic.h ****   THIS SOFTWARE IS PROVIDED BY THE COPYRIGHT HOLDERS AND CONTRIBUTORS "AS IS"
  21:/usr/lib/gcc/avr/4.6.0/../../../../avr/include/util/delay_basic.h ****   AND ANY EXPRESS OR IMPLIED WARRANTIES, INCLUDING, BUT NOT LIMITED TO, THE
  22:/usr/lib/gcc/avr/4.6.0/../../../../avr/include/util/delay_basic.h ****   IMPLIED WARRANTIES OF MERCHANTABILITY AND FITNESS FOR A PARTICULAR PURPOSE
  23:/usr/lib/gcc/avr/4.6.0/../../../../avr/include/util/delay_basic.h ****   ARE DISCLAIMED. IN NO EVENT SHALL THE COPYRIGHT OWNER OR CONTRIBUTORS BE
  24:/usr/lib/gcc/avr/4.6.0/../../../../avr/include/util/delay_basic.h ****   LIABLE FOR ANY DIRECT, INDIRECT, INCIDENTAL, SPECIAL, EXEMPLARY, OR
  25:/usr/lib/gcc/avr/4.6.0/../../../../avr/include/util/delay_basic.h ****   CONSEQUENTIAL DAMAGES (INCLUDING, BUT NOT LIMITED TO, PROCUREMENT OF
  26:/usr/lib/gcc/avr/4.6.0/../../../../avr/include/util/delay_basic.h ****   SUBSTITUTE GOODS OR SERVICES; LOSS OF USE, DATA, OR PROFITS; OR BUSINESS
  27:/usr/lib/gcc/avr/4.6.0/../../../../avr/include/util/delay_basic.h ****   INTERRUPTION) HOWEVER CAUSED AND ON ANY THEORY OF LIABILITY, WHETHER IN
  28:/usr/lib/gcc/avr/4.6.0/../../../../avr/include/util/delay_basic.h ****   CONTRACT, STRICT LIABILITY, OR TORT (INCLUDING NEGLIGENCE OR OTHERWISE)
  29:/usr/lib/gcc/avr/4.6.0/../../../../avr/include/util/delay_basic.h ****   ARISING IN ANY WAY OUT OF THE USE OF THIS SOFTWARE, EVEN IF ADVISED OF THE
  30:/usr/lib/gcc/avr/4.6.0/../../../../avr/include/util/delay_basic.h ****   POSSIBILITY OF SUCH DAMAGE. */
  31:/usr/lib/gcc/avr/4.6.0/../../../../avr/include/util/delay_basic.h **** 
  32:/usr/lib/gcc/avr/4.6.0/../../../../avr/include/util/delay_basic.h **** /* $Id: delay_basic.h 2143 2010-06-08 21:19:51Z joerg_wunsch $ */
  33:/usr/lib/gcc/avr/4.6.0/../../../../avr/include/util/delay_basic.h **** 
  34:/usr/lib/gcc/avr/4.6.0/../../../../avr/include/util/delay_basic.h **** #ifndef _UTIL_DELAY_BASIC_H_
  35:/usr/lib/gcc/avr/4.6.0/../../../../avr/include/util/delay_basic.h **** #define _UTIL_DELAY_BASIC_H_ 1
  36:/usr/lib/gcc/avr/4.6.0/../../../../avr/include/util/delay_basic.h **** 
  37:/usr/lib/gcc/avr/4.6.0/../../../../avr/include/util/delay_basic.h **** #include <inttypes.h>
  38:/usr/lib/gcc/avr/4.6.0/../../../../avr/include/util/delay_basic.h **** 
  39:/usr/lib/gcc/avr/4.6.0/../../../../avr/include/util/delay_basic.h **** #if !defined(__DOXYGEN__)
  40:/usr/lib/gcc/avr/4.6.0/../../../../avr/include/util/delay_basic.h **** static inline void _delay_loop_1(uint8_t __count) __attribute__((always_inline));
  41:/usr/lib/gcc/avr/4.6.0/../../../../avr/include/util/delay_basic.h **** static inline void _delay_loop_2(uint16_t __count) __attribute__((always_inline));
  42:/usr/lib/gcc/avr/4.6.0/../../../../avr/include/util/delay_basic.h **** #endif
GAS LISTING /tmp/ccEGDR1z.s 			page 16


  43:/usr/lib/gcc/avr/4.6.0/../../../../avr/include/util/delay_basic.h **** 
  44:/usr/lib/gcc/avr/4.6.0/../../../../avr/include/util/delay_basic.h **** /** \file */
  45:/usr/lib/gcc/avr/4.6.0/../../../../avr/include/util/delay_basic.h **** /** \defgroup util_delay_basic <util/delay_basic.h>: Basic busy-wait delay loops
  46:/usr/lib/gcc/avr/4.6.0/../../../../avr/include/util/delay_basic.h ****     \code
  47:/usr/lib/gcc/avr/4.6.0/../../../../avr/include/util/delay_basic.h ****     #include <util/delay_basic.h>
  48:/usr/lib/gcc/avr/4.6.0/../../../../avr/include/util/delay_basic.h ****     \endcode
  49:/usr/lib/gcc/avr/4.6.0/../../../../avr/include/util/delay_basic.h **** 
  50:/usr/lib/gcc/avr/4.6.0/../../../../avr/include/util/delay_basic.h ****     The functions in this header file implement simple delay loops
  51:/usr/lib/gcc/avr/4.6.0/../../../../avr/include/util/delay_basic.h ****     that perform a busy-waiting.  They are typically used to
  52:/usr/lib/gcc/avr/4.6.0/../../../../avr/include/util/delay_basic.h ****     facilitate short delays in the program execution.  They are
  53:/usr/lib/gcc/avr/4.6.0/../../../../avr/include/util/delay_basic.h ****     implemented as count-down loops with a well-known CPU cycle
  54:/usr/lib/gcc/avr/4.6.0/../../../../avr/include/util/delay_basic.h ****     count per loop iteration.  As such, no other processing can
  55:/usr/lib/gcc/avr/4.6.0/../../../../avr/include/util/delay_basic.h ****     occur simultaneously.  It should be kept in mind that the
  56:/usr/lib/gcc/avr/4.6.0/../../../../avr/include/util/delay_basic.h ****     functions described here do not disable interrupts.
  57:/usr/lib/gcc/avr/4.6.0/../../../../avr/include/util/delay_basic.h **** 
  58:/usr/lib/gcc/avr/4.6.0/../../../../avr/include/util/delay_basic.h ****     In general, for long delays, the use of hardware timers is
  59:/usr/lib/gcc/avr/4.6.0/../../../../avr/include/util/delay_basic.h ****     much preferrable, as they free the CPU, and allow for
  60:/usr/lib/gcc/avr/4.6.0/../../../../avr/include/util/delay_basic.h ****     concurrent processing of other events while the timer is
  61:/usr/lib/gcc/avr/4.6.0/../../../../avr/include/util/delay_basic.h ****     running.  However, in particular for very short delays, the
  62:/usr/lib/gcc/avr/4.6.0/../../../../avr/include/util/delay_basic.h ****     overhead of setting up a hardware timer is too much compared
  63:/usr/lib/gcc/avr/4.6.0/../../../../avr/include/util/delay_basic.h ****     to the overall delay time.
  64:/usr/lib/gcc/avr/4.6.0/../../../../avr/include/util/delay_basic.h **** 
  65:/usr/lib/gcc/avr/4.6.0/../../../../avr/include/util/delay_basic.h ****     Two inline functions are provided for the actual delay algorithms.
  66:/usr/lib/gcc/avr/4.6.0/../../../../avr/include/util/delay_basic.h **** 
  67:/usr/lib/gcc/avr/4.6.0/../../../../avr/include/util/delay_basic.h **** */
  68:/usr/lib/gcc/avr/4.6.0/../../../../avr/include/util/delay_basic.h **** 
  69:/usr/lib/gcc/avr/4.6.0/../../../../avr/include/util/delay_basic.h **** /** \ingroup util_delay_basic
  70:/usr/lib/gcc/avr/4.6.0/../../../../avr/include/util/delay_basic.h **** 
  71:/usr/lib/gcc/avr/4.6.0/../../../../avr/include/util/delay_basic.h ****     Delay loop using an 8-bit counter \c __count, so up to 256
  72:/usr/lib/gcc/avr/4.6.0/../../../../avr/include/util/delay_basic.h ****     iterations are possible.  (The value 256 would have to be passed
  73:/usr/lib/gcc/avr/4.6.0/../../../../avr/include/util/delay_basic.h ****     as 0.)  The loop executes three CPU cycles per iteration, not
  74:/usr/lib/gcc/avr/4.6.0/../../../../avr/include/util/delay_basic.h ****     including the overhead the compiler needs to setup the counter
  75:/usr/lib/gcc/avr/4.6.0/../../../../avr/include/util/delay_basic.h ****     register.
  76:/usr/lib/gcc/avr/4.6.0/../../../../avr/include/util/delay_basic.h **** 
  77:/usr/lib/gcc/avr/4.6.0/../../../../avr/include/util/delay_basic.h ****     Thus, at a CPU speed of 1 MHz, delays of up to 768 microseconds
  78:/usr/lib/gcc/avr/4.6.0/../../../../avr/include/util/delay_basic.h ****     can be achieved.
  79:/usr/lib/gcc/avr/4.6.0/../../../../avr/include/util/delay_basic.h **** */
  80:/usr/lib/gcc/avr/4.6.0/../../../../avr/include/util/delay_basic.h **** void
  81:/usr/lib/gcc/avr/4.6.0/../../../../avr/include/util/delay_basic.h **** _delay_loop_1(uint8_t __count)
  82:/usr/lib/gcc/avr/4.6.0/../../../../avr/include/util/delay_basic.h **** {
  83:/usr/lib/gcc/avr/4.6.0/../../../../avr/include/util/delay_basic.h **** 	__asm__ volatile (
 573               		.stabn	68,0,83,.LM63-.LFBB4
 574               	.LM63:
 575 0250 86E0      		ldi r24,lo8(6)
 576 0252 982F      		mov r25,r24
 577               	/* #APP */
 578               	 ;  83 "/usr/lib/gcc/avr/4.6.0/../../../../avr/include/util/delay_basic.h" 1
 579 0254 9A95      		1: dec r25
 580 0256 01F4      		brne 1b
 581               	 ;  0 "" 2
 582               	/* #NOAPP */
 583               	.LBE49:
 584               	.LBE48:
 585               	.LBE47:
 586               	.LBE46:
 587               		.stabs	"tlc.c",132,0,0,.Ltext2
 588               	.Ltext2:
GAS LISTING /tmp/ccEGDR1z.s 			page 17


 179:tlc.c         ****     _OFF(XLAT_PRT, XLAT_PIN);
 589               		.stabn	68,0,179,.LM64-.LFBB4
 590               	.LM64:
 591 0258 2998      		cbi 37-0x20,1
 592               	.LBB50:
 593               	.LBB51:
 594               	.LBB52:
 595               	.LBB53:
 596               		.stabs	"/usr/lib/gcc/avr/4.6.0/../../../../avr/include/util/delay_basic.h",132,0,0,.Ltext3
 597               	.Ltext3:
 598               		.stabn	68,0,83,.LM65-.LFBB4
 599               	.LM65:
 600               	/* #APP */
 601               	 ;  83 "/usr/lib/gcc/avr/4.6.0/../../../../avr/include/util/delay_basic.h" 1
 602 025a 8A95      		1: dec r24
 603 025c 01F4      		brne 1b
 604               	 ;  0 "" 2
 605               	/* epilogue start */
 606               	/* #NOAPP */
 607               	.LBE53:
 608               	.LBE52:
 609               	.LBE51:
 610               	.LBE50:
 611               		.stabs	"tlc.c",132,0,0,.Ltext4
 612               	.Ltext4:
 181:tlc.c         **** }
 613               		.stabn	68,0,181,.LM66-.LFBB4
 614               	.LM66:
 615 025e DF91      		pop r29
 616 0260 CF91      		pop r28
 617 0262 0895      		ret
 618               		.size	tlc_drive, .-tlc_drive
 619               	.Lscope4:
 620               		.stabs	"",36,0,0,.Lscope4-.LFBB4
 621               		.stabd	78,0,0
 622               		.stabs	"set_output:F(0,15)",36,0,216,set_output
 623               		.stabs	"chan:P(5,2)",64,0,216,24
 624               		.stabs	"led:P(5,2)",64,0,216,22
 625               		.stabs	"val:P(5,4)",64,0,216,12
 626               	.global	set_output
 627               		.type	set_output, @function
 628               	set_output:
 629               		.stabd	46,0,0
 215:tlc.c         **** 
 216:tlc.c         **** void set_output(uint8_t chan, uint8_t led, uint16_t val) {
 630               		.stabn	68,0,216,.LM67-.LFBB5
 631               	.LM67:
 632               	.LFBB5:
 633 0264 CF92      		push r12
 634 0266 DF92      		push r13
 635 0268 EF92      		push r14
 636 026a FF92      		push r15
 637 026c 1F93      		push r17
 638 026e CF93      		push r28
 639 0270 DF93      		push r29
 640               	/* prologue: function */
 641               	/* frame size = 0 */
GAS LISTING /tmp/ccEGDR1z.s 			page 18


 642               	/* stack size = 7 */
 643               	.L__stack_usage = 7
 644 0272 6A01      		movw r12,r20
 217:tlc.c         ****     // stupid wrapper function to set LEDs
 218:tlc.c         ****     uint8_t i;
 219:tlc.c         **** 
 220:tlc.c         **** #if (CTRLR_TYPE == CTRLR_RGB)
 221:tlc.c         ****     for ( i=(led+1) ; i<=3*(led+1) ; i++ ) set(tlc[chan], i, val);
 645               		.stabn	68,0,221,.LM68-.LFBB5
 646               	.LM68:
 647 0274 162F      		mov r17,r22
 648 0276 1F5F      		subi r17,lo8(-(1))
 649 0278 70E0      		ldi r23,lo8(0)
 650 027a 6F5F      		subi r22,lo8(-(1))
 651 027c 7F4F      		sbci r23,hi8(-(1))
 652 027e 7B01      		movw r14,r22
 653 0280 EE0C      		lsl r14
 654 0282 FF1C      		rol r15
 655 0284 E60E      		add r14,r22
 656 0286 F71E      		adc r15,r23
 657 0288 212F      		mov r18,r17
 658 028a 30E0      		ldi r19,lo8(0)
 659 028c E216      		cp r14,r18
 660 028e F306      		cpc r15,r19
 661 0290 04F0      		brlt .L18
 662 0292 90E0      		ldi r25,lo8(0)
 663 0294 EC01      		movw r28,r24
 664 0296 CC0F      		lsl r28
 665 0298 DD1F      		rol r29
 666 029a C80F      		add r28,r24
 667 029c D91F      		adc r29,r25
 668 029e CC0F      		lsl r28
 669 02a0 DD1F      		rol r29
 670 02a2 CC0F      		lsl r28
 671 02a4 DD1F      		rol r29
 672 02a6 CC0F      		lsl r28
 673 02a8 DD1F      		rol r29
 674 02aa C050      		subi r28,lo8(-(tlc))
 675 02ac D040      		sbci r29,hi8(-(tlc))
 676               	.L20:
 677               		.stabn	68,0,221,.LM69-.LFBB5
 678               	.LM69:
 679 02ae CE01      		movw r24,r28
 680 02b0 612F      		mov r22,r17
 681 02b2 A601      		movw r20,r12
 682 02b4 0E94 0000 		call set
 683 02b8 1F5F      		subi r17,lo8(-(1))
 684 02ba 812F      		mov r24,r17
 685 02bc 90E0      		ldi r25,lo8(0)
 686 02be E816      		cp r14,r24
 687 02c0 F906      		cpc r15,r25
 688 02c2 04F4      		brge .L20
 689               	.L18:
 690               	/* epilogue start */
 222:tlc.c         **** #elif (CTRLR_TYPE == CTRLR_UVS)
 223:tlc.c         ****     if ( chan == 0 ) for ( i=1 ; i<=14 ; i++ ) set(tlc[0], i, val);
 224:tlc.c         ****     else             for ( i=1 ; i<=7  ; i++ ) set(tlc[1], i, val);
GAS LISTING /tmp/ccEGDR1z.s 			page 19


 225:tlc.c         **** #endif /* CTRLR_TYPE */
 226:tlc.c         **** }
 691               		.stabn	68,0,226,.LM70-.LFBB5
 692               	.LM70:
 693 02c4 DF91      		pop r29
 694 02c6 CF91      		pop r28
 695 02c8 1F91      		pop r17
 696 02ca FF90      		pop r15
 697 02cc EF90      		pop r14
 698 02ce DF90      		pop r13
 699 02d0 CF90      		pop r12
 700 02d2 0895      		ret
 701               		.size	set_output, .-set_output
 702               		.stabs	"i:r(5,2)",64,0,218,17
 703               		.stabn	192,0,0,.LFBB5-.LFBB5
 704               		.stabn	224,0,0,.Lscope5-.LFBB5
 705               	.Lscope5:
 706               		.stabs	"",36,0,0,.Lscope5-.LFBB5
 707               		.stabd	78,0,0
 708               		.stabs	"ser2led:F(5,4)",36,0,230,ser2led
 709               		.stabs	"ser:P(5,2)",64,0,230,24
 710               	.global	ser2led
 711               		.type	ser2led, @function
 712               	ser2led:
 713               		.stabd	46,0,0
 227:tlc.c         **** 
 228:tlc.c         **** // convert 8-bit serial input data into a 12-bit output for the TLC
 229:tlc.c         **** // and try to preserve the full range of the TLC's control
 230:tlc.c         **** uint16_t ser2led(uint8_t ser) {
 714               		.stabn	68,0,230,.LM71-.LFBB6
 715               	.LM71:
 716               	.LFBB6:
 717               	/* prologue: function */
 718               	/* frame size = 0 */
 719               	/* stack size = 0 */
 720               	.L__stack_usage = 0
 231:tlc.c         ****     /*
 232:tlc.c         ****     if ( ser == 254 ) return 0xFFF;
 233:tlc.c         ****     else
 234:tlc.c         ****     // */
 235:tlc.c         ****     return (((uint16_t) ser) << 4) | (ser >> 4);
 721               		.stabn	68,0,235,.LM72-.LFBB6
 722               	.LM72:
 723 02d4 282F      		mov r18,r24
 724 02d6 2295      		swap r18
 725 02d8 2F70      		andi r18,lo8(15)
 726 02da 30E0      		ldi r19,lo8(0)
 727 02dc 90E0      		ldi r25,lo8(0)
 728 02de 8295      		swap r24
 729 02e0 9295      		swap r25
 730 02e2 907F      		andi r25,0xf0
 731 02e4 9827      		eor r25,r24
 732 02e6 807F      		andi r24,0xf0
 733 02e8 9827      		eor r25,r24
 734 02ea 282B      		or r18,r24
 735 02ec 392B      		or r19,r25
 236:tlc.c         **** }
GAS LISTING /tmp/ccEGDR1z.s 			page 20


 736               		.stabn	68,0,236,.LM73-.LFBB6
 737               	.LM73:
 738 02ee C901      		movw r24,r18
 739               	/* epilogue start */
 740 02f0 0895      		ret
 741               		.size	ser2led, .-ser2led
 742               	.Lscope6:
 743               		.stabs	"",36,0,0,.Lscope6-.LFBB6
 744               		.stabd	78,0,0
 745               		.stabs	"",100,0,0,.Letext0
 746               	.Letext0:
GAS LISTING /tmp/ccEGDR1z.s 			page 21


DEFINED SYMBOLS
                            *ABS*:0000000000000000 tlc.c
     /tmp/ccEGDR1z.s:2      *ABS*:000000000000003f __SREG__
     /tmp/ccEGDR1z.s:3      *ABS*:000000000000003e __SP_H__
     /tmp/ccEGDR1z.s:4      *ABS*:000000000000003d __SP_L__
     /tmp/ccEGDR1z.s:5      *ABS*:0000000000000000 __tmp_reg__
     /tmp/ccEGDR1z.s:6      *ABS*:0000000000000001 __zero_reg__
     /tmp/ccEGDR1z.s:93     .text:0000000000000000 tlc_init
     /tmp/ccEGDR1z.s:207    .text:0000000000000074 set
     /tmp/ccEGDR1z.s:308    .text:00000000000000e4 get
     /tmp/ccEGDR1z.s:406    .text:0000000000000156 tlc_drive
     /tmp/ccEGDR1z.s:628    .text:0000000000000264 set_output
     /tmp/ccEGDR1z.s:712    .text:00000000000002d4 ser2led

UNDEFINED SYMBOLS
__do_copy_data
__do_clear_bss
tlc
